
ATXMega128_USB_TEST.elf:     file format elf32-avr

Sections:
Idx Name          Size      VMA       LMA       File off  Algn
  0 .text         00000b52  00000000  00000000  00000074  2**1
                  CONTENTS, ALLOC, LOAD, READONLY, CODE
  1 .data         00000000  00802000  00000b52  00000bc6  2**0
                  CONTENTS, ALLOC, LOAD, DATA
  2 .stab         00000714  00000000  00000000  00000bc8  2**2
                  CONTENTS, READONLY, DEBUGGING
  3 .stabstr      00000097  00000000  00000000  000012dc  2**0
                  CONTENTS, READONLY, DEBUGGING
  4 .comment      0000002f  00000000  00000000  00001373  2**0
                  CONTENTS, READONLY
  5 .debug_aranges 00000020  00000000  00000000  000013a2  2**0
                  CONTENTS, READONLY, DEBUGGING
  6 .debug_info   00000423  00000000  00000000  000013c2  2**0
                  CONTENTS, READONLY, DEBUGGING
  7 .debug_abbrev 000000f7  00000000  00000000  000017e5  2**0
                  CONTENTS, READONLY, DEBUGGING
  8 .debug_line   000005ec  00000000  00000000  000018dc  2**0
                  CONTENTS, READONLY, DEBUGGING
  9 .debug_frame  00000034  00000000  00000000  00001ec8  2**2
                  CONTENTS, READONLY, DEBUGGING
 10 .debug_str    000003e6  00000000  00000000  00001efc  2**0
                  CONTENTS, READONLY, DEBUGGING
 11 .debug_loc    00000527  00000000  00000000  000022e2  2**0
                  CONTENTS, READONLY, DEBUGGING
 12 .debug_ranges 00000010  00000000  00000000  00002809  2**0
                  CONTENTS, READONLY, DEBUGGING

Disassembly of section .text:

00000000 <__vectors>:
   0:	fd c0       	rjmp	.+506    	; 0x1fc <__ctors_end>
   2:	00 00       	nop
   4:	09 c1       	rjmp	.+530    	; 0x218 <__bad_interrupt>
   6:	00 00       	nop
   8:	07 c1       	rjmp	.+526    	; 0x218 <__bad_interrupt>
   a:	00 00       	nop
   c:	05 c1       	rjmp	.+522    	; 0x218 <__bad_interrupt>
   e:	00 00       	nop
  10:	03 c1       	rjmp	.+518    	; 0x218 <__bad_interrupt>
  12:	00 00       	nop
  14:	01 c1       	rjmp	.+514    	; 0x218 <__bad_interrupt>
  16:	00 00       	nop
  18:	ff c0       	rjmp	.+510    	; 0x218 <__bad_interrupt>
  1a:	00 00       	nop
  1c:	fd c0       	rjmp	.+506    	; 0x218 <__bad_interrupt>
  1e:	00 00       	nop
  20:	fb c0       	rjmp	.+502    	; 0x218 <__bad_interrupt>
  22:	00 00       	nop
  24:	f9 c0       	rjmp	.+498    	; 0x218 <__bad_interrupt>
  26:	00 00       	nop
  28:	f7 c0       	rjmp	.+494    	; 0x218 <__bad_interrupt>
  2a:	00 00       	nop
  2c:	f5 c0       	rjmp	.+490    	; 0x218 <__bad_interrupt>
  2e:	00 00       	nop
  30:	f3 c0       	rjmp	.+486    	; 0x218 <__bad_interrupt>
  32:	00 00       	nop
  34:	f1 c0       	rjmp	.+482    	; 0x218 <__bad_interrupt>
  36:	00 00       	nop
  38:	ef c0       	rjmp	.+478    	; 0x218 <__bad_interrupt>
  3a:	00 00       	nop
  3c:	ed c0       	rjmp	.+474    	; 0x218 <__bad_interrupt>
  3e:	00 00       	nop
  40:	eb c0       	rjmp	.+470    	; 0x218 <__bad_interrupt>
  42:	00 00       	nop
  44:	e9 c0       	rjmp	.+466    	; 0x218 <__bad_interrupt>
  46:	00 00       	nop
  48:	e7 c0       	rjmp	.+462    	; 0x218 <__bad_interrupt>
  4a:	00 00       	nop
  4c:	e5 c0       	rjmp	.+458    	; 0x218 <__bad_interrupt>
  4e:	00 00       	nop
  50:	e3 c0       	rjmp	.+454    	; 0x218 <__bad_interrupt>
  52:	00 00       	nop
  54:	e1 c0       	rjmp	.+450    	; 0x218 <__bad_interrupt>
  56:	00 00       	nop
  58:	df c0       	rjmp	.+446    	; 0x218 <__bad_interrupt>
  5a:	00 00       	nop
  5c:	dd c0       	rjmp	.+442    	; 0x218 <__bad_interrupt>
  5e:	00 00       	nop
  60:	db c0       	rjmp	.+438    	; 0x218 <__bad_interrupt>
  62:	00 00       	nop
  64:	d9 c0       	rjmp	.+434    	; 0x218 <__bad_interrupt>
  66:	00 00       	nop
  68:	d7 c0       	rjmp	.+430    	; 0x218 <__bad_interrupt>
  6a:	00 00       	nop
  6c:	d5 c0       	rjmp	.+426    	; 0x218 <__bad_interrupt>
  6e:	00 00       	nop
  70:	d3 c0       	rjmp	.+422    	; 0x218 <__bad_interrupt>
  72:	00 00       	nop
  74:	d1 c0       	rjmp	.+418    	; 0x218 <__bad_interrupt>
  76:	00 00       	nop
  78:	cf c0       	rjmp	.+414    	; 0x218 <__bad_interrupt>
  7a:	00 00       	nop
  7c:	cd c0       	rjmp	.+410    	; 0x218 <__bad_interrupt>
  7e:	00 00       	nop
  80:	cb c0       	rjmp	.+406    	; 0x218 <__bad_interrupt>
  82:	00 00       	nop
  84:	c9 c0       	rjmp	.+402    	; 0x218 <__bad_interrupt>
  86:	00 00       	nop
  88:	c7 c0       	rjmp	.+398    	; 0x218 <__bad_interrupt>
  8a:	00 00       	nop
  8c:	c5 c0       	rjmp	.+394    	; 0x218 <__bad_interrupt>
  8e:	00 00       	nop
  90:	c3 c0       	rjmp	.+390    	; 0x218 <__bad_interrupt>
  92:	00 00       	nop
  94:	c1 c0       	rjmp	.+386    	; 0x218 <__bad_interrupt>
  96:	00 00       	nop
  98:	bf c0       	rjmp	.+382    	; 0x218 <__bad_interrupt>
  9a:	00 00       	nop
  9c:	bd c0       	rjmp	.+378    	; 0x218 <__bad_interrupt>
  9e:	00 00       	nop
  a0:	bb c0       	rjmp	.+374    	; 0x218 <__bad_interrupt>
  a2:	00 00       	nop
  a4:	b9 c0       	rjmp	.+370    	; 0x218 <__bad_interrupt>
  a6:	00 00       	nop
  a8:	b7 c0       	rjmp	.+366    	; 0x218 <__bad_interrupt>
  aa:	00 00       	nop
  ac:	b5 c0       	rjmp	.+362    	; 0x218 <__bad_interrupt>
  ae:	00 00       	nop
  b0:	b3 c0       	rjmp	.+358    	; 0x218 <__bad_interrupt>
  b2:	00 00       	nop
  b4:	b1 c0       	rjmp	.+354    	; 0x218 <__bad_interrupt>
  b6:	00 00       	nop
  b8:	af c0       	rjmp	.+350    	; 0x218 <__bad_interrupt>
  ba:	00 00       	nop
  bc:	ad c0       	rjmp	.+346    	; 0x218 <__bad_interrupt>
  be:	00 00       	nop
  c0:	ab c0       	rjmp	.+342    	; 0x218 <__bad_interrupt>
  c2:	00 00       	nop
  c4:	a9 c0       	rjmp	.+338    	; 0x218 <__bad_interrupt>
  c6:	00 00       	nop
  c8:	a7 c0       	rjmp	.+334    	; 0x218 <__bad_interrupt>
  ca:	00 00       	nop
  cc:	a5 c0       	rjmp	.+330    	; 0x218 <__bad_interrupt>
  ce:	00 00       	nop
  d0:	a3 c0       	rjmp	.+326    	; 0x218 <__bad_interrupt>
  d2:	00 00       	nop
  d4:	a1 c0       	rjmp	.+322    	; 0x218 <__bad_interrupt>
  d6:	00 00       	nop
  d8:	9f c0       	rjmp	.+318    	; 0x218 <__bad_interrupt>
  da:	00 00       	nop
  dc:	9d c0       	rjmp	.+314    	; 0x218 <__bad_interrupt>
  de:	00 00       	nop
  e0:	9b c0       	rjmp	.+310    	; 0x218 <__bad_interrupt>
  e2:	00 00       	nop
  e4:	99 c0       	rjmp	.+306    	; 0x218 <__bad_interrupt>
  e6:	00 00       	nop
  e8:	97 c0       	rjmp	.+302    	; 0x218 <__bad_interrupt>
  ea:	00 00       	nop
  ec:	95 c0       	rjmp	.+298    	; 0x218 <__bad_interrupt>
  ee:	00 00       	nop
  f0:	93 c0       	rjmp	.+294    	; 0x218 <__bad_interrupt>
  f2:	00 00       	nop
  f4:	91 c0       	rjmp	.+290    	; 0x218 <__bad_interrupt>
  f6:	00 00       	nop
  f8:	8f c0       	rjmp	.+286    	; 0x218 <__bad_interrupt>
  fa:	00 00       	nop
  fc:	8d c0       	rjmp	.+282    	; 0x218 <__bad_interrupt>
  fe:	00 00       	nop
 100:	8b c0       	rjmp	.+278    	; 0x218 <__bad_interrupt>
 102:	00 00       	nop
 104:	89 c0       	rjmp	.+274    	; 0x218 <__bad_interrupt>
 106:	00 00       	nop
 108:	87 c0       	rjmp	.+270    	; 0x218 <__bad_interrupt>
 10a:	00 00       	nop
 10c:	85 c0       	rjmp	.+266    	; 0x218 <__bad_interrupt>
 10e:	00 00       	nop
 110:	83 c0       	rjmp	.+262    	; 0x218 <__bad_interrupt>
 112:	00 00       	nop
 114:	81 c0       	rjmp	.+258    	; 0x218 <__bad_interrupt>
 116:	00 00       	nop
 118:	7f c0       	rjmp	.+254    	; 0x218 <__bad_interrupt>
 11a:	00 00       	nop
 11c:	7d c0       	rjmp	.+250    	; 0x218 <__bad_interrupt>
 11e:	00 00       	nop
 120:	7b c0       	rjmp	.+246    	; 0x218 <__bad_interrupt>
 122:	00 00       	nop
 124:	79 c0       	rjmp	.+242    	; 0x218 <__bad_interrupt>
 126:	00 00       	nop
 128:	77 c0       	rjmp	.+238    	; 0x218 <__bad_interrupt>
 12a:	00 00       	nop
 12c:	75 c0       	rjmp	.+234    	; 0x218 <__bad_interrupt>
 12e:	00 00       	nop
 130:	73 c0       	rjmp	.+230    	; 0x218 <__bad_interrupt>
 132:	00 00       	nop
 134:	71 c0       	rjmp	.+226    	; 0x218 <__bad_interrupt>
 136:	00 00       	nop
 138:	6f c0       	rjmp	.+222    	; 0x218 <__bad_interrupt>
 13a:	00 00       	nop
 13c:	6d c0       	rjmp	.+218    	; 0x218 <__bad_interrupt>
 13e:	00 00       	nop
 140:	6b c0       	rjmp	.+214    	; 0x218 <__bad_interrupt>
 142:	00 00       	nop
 144:	69 c0       	rjmp	.+210    	; 0x218 <__bad_interrupt>
 146:	00 00       	nop
 148:	67 c0       	rjmp	.+206    	; 0x218 <__bad_interrupt>
 14a:	00 00       	nop
 14c:	65 c0       	rjmp	.+202    	; 0x218 <__bad_interrupt>
 14e:	00 00       	nop
 150:	63 c0       	rjmp	.+198    	; 0x218 <__bad_interrupt>
 152:	00 00       	nop
 154:	61 c0       	rjmp	.+194    	; 0x218 <__bad_interrupt>
 156:	00 00       	nop
 158:	5f c0       	rjmp	.+190    	; 0x218 <__bad_interrupt>
 15a:	00 00       	nop
 15c:	5d c0       	rjmp	.+186    	; 0x218 <__bad_interrupt>
 15e:	00 00       	nop
 160:	5b c0       	rjmp	.+182    	; 0x218 <__bad_interrupt>
 162:	00 00       	nop
 164:	59 c0       	rjmp	.+178    	; 0x218 <__bad_interrupt>
 166:	00 00       	nop
 168:	57 c0       	rjmp	.+174    	; 0x218 <__bad_interrupt>
 16a:	00 00       	nop
 16c:	55 c0       	rjmp	.+170    	; 0x218 <__bad_interrupt>
 16e:	00 00       	nop
 170:	53 c0       	rjmp	.+166    	; 0x218 <__bad_interrupt>
 172:	00 00       	nop
 174:	51 c0       	rjmp	.+162    	; 0x218 <__bad_interrupt>
 176:	00 00       	nop
 178:	4f c0       	rjmp	.+158    	; 0x218 <__bad_interrupt>
 17a:	00 00       	nop
 17c:	4d c0       	rjmp	.+154    	; 0x218 <__bad_interrupt>
 17e:	00 00       	nop
 180:	4b c0       	rjmp	.+150    	; 0x218 <__bad_interrupt>
 182:	00 00       	nop
 184:	49 c0       	rjmp	.+146    	; 0x218 <__bad_interrupt>
 186:	00 00       	nop
 188:	47 c0       	rjmp	.+142    	; 0x218 <__bad_interrupt>
 18a:	00 00       	nop
 18c:	45 c0       	rjmp	.+138    	; 0x218 <__bad_interrupt>
 18e:	00 00       	nop
 190:	43 c0       	rjmp	.+134    	; 0x218 <__bad_interrupt>
 192:	00 00       	nop
 194:	41 c0       	rjmp	.+130    	; 0x218 <__bad_interrupt>
 196:	00 00       	nop
 198:	3f c0       	rjmp	.+126    	; 0x218 <__bad_interrupt>
 19a:	00 00       	nop
 19c:	3d c0       	rjmp	.+122    	; 0x218 <__bad_interrupt>
 19e:	00 00       	nop
 1a0:	3b c0       	rjmp	.+118    	; 0x218 <__bad_interrupt>
 1a2:	00 00       	nop
 1a4:	39 c0       	rjmp	.+114    	; 0x218 <__bad_interrupt>
 1a6:	00 00       	nop
 1a8:	37 c0       	rjmp	.+110    	; 0x218 <__bad_interrupt>
 1aa:	00 00       	nop
 1ac:	35 c0       	rjmp	.+106    	; 0x218 <__bad_interrupt>
 1ae:	00 00       	nop
 1b0:	33 c0       	rjmp	.+102    	; 0x218 <__bad_interrupt>
 1b2:	00 00       	nop
 1b4:	31 c0       	rjmp	.+98     	; 0x218 <__bad_interrupt>
 1b6:	00 00       	nop
 1b8:	2f c0       	rjmp	.+94     	; 0x218 <__bad_interrupt>
 1ba:	00 00       	nop
 1bc:	2d c0       	rjmp	.+90     	; 0x218 <__bad_interrupt>
 1be:	00 00       	nop
 1c0:	2b c0       	rjmp	.+86     	; 0x218 <__bad_interrupt>
 1c2:	00 00       	nop
 1c4:	29 c0       	rjmp	.+82     	; 0x218 <__bad_interrupt>
 1c6:	00 00       	nop
 1c8:	27 c0       	rjmp	.+78     	; 0x218 <__bad_interrupt>
 1ca:	00 00       	nop
 1cc:	25 c0       	rjmp	.+74     	; 0x218 <__bad_interrupt>
 1ce:	00 00       	nop
 1d0:	23 c0       	rjmp	.+70     	; 0x218 <__bad_interrupt>
 1d2:	00 00       	nop
 1d4:	21 c0       	rjmp	.+66     	; 0x218 <__bad_interrupt>
 1d6:	00 00       	nop
 1d8:	1f c0       	rjmp	.+62     	; 0x218 <__bad_interrupt>
 1da:	00 00       	nop
 1dc:	1d c0       	rjmp	.+58     	; 0x218 <__bad_interrupt>
 1de:	00 00       	nop
 1e0:	1b c0       	rjmp	.+54     	; 0x218 <__bad_interrupt>
 1e2:	00 00       	nop
 1e4:	19 c0       	rjmp	.+50     	; 0x218 <__bad_interrupt>
 1e6:	00 00       	nop
 1e8:	17 c0       	rjmp	.+46     	; 0x218 <__bad_interrupt>
 1ea:	00 00       	nop
 1ec:	15 c0       	rjmp	.+42     	; 0x218 <__bad_interrupt>
 1ee:	00 00       	nop
 1f0:	13 c0       	rjmp	.+38     	; 0x218 <__bad_interrupt>
 1f2:	00 00       	nop
 1f4:	11 c0       	rjmp	.+34     	; 0x218 <__bad_interrupt>
 1f6:	00 00       	nop
 1f8:	0f c0       	rjmp	.+30     	; 0x218 <__bad_interrupt>
	...

000001fc <__ctors_end>:
 1fc:	11 24       	eor	r1, r1
 1fe:	1f be       	out	0x3f, r1	; 63
 200:	cf ef       	ldi	r28, 0xFF	; 255
 202:	df e3       	ldi	r29, 0x3F	; 63
 204:	de bf       	out	0x3e, r29	; 62
 206:	cd bf       	out	0x3d, r28	; 61
 208:	00 e0       	ldi	r16, 0x00	; 0
 20a:	0c bf       	out	0x3c, r16	; 60
 20c:	18 be       	out	0x38, r1	; 56
 20e:	19 be       	out	0x39, r1	; 57
 210:	1a be       	out	0x3a, r1	; 58
 212:	1b be       	out	0x3b, r1	; 59
 214:	02 d0       	rcall	.+4      	; 0x21a <main>
 216:	9b c4       	rjmp	.+2358   	; 0xb4e <_exit>

00000218 <__bad_interrupt>:
 218:	f3 ce       	rjmp	.-538    	; 0x0 <__vectors>

0000021a <main>:
#include <util/delay.h> 



int main(void)
{
 21a:	cf 93       	push	r28
 21c:	df 93       	push	r29
 21e:	cd b7       	in	r28, 0x3d	; 61
 220:	de b7       	in	r29, 0x3e	; 62
 222:	2c 97       	sbiw	r28, 0x0c	; 12
 224:	cd bf       	out	0x3d, r28	; 61
 226:	de bf       	out	0x3e, r29	; 62
	uint32_t z;
	uint8_t j;
	uint8_t ok;
	uint8_t ct;

	PORTA.DIR = 0b00111100;
 228:	8c e3       	ldi	r24, 0x3C	; 60
 22a:	80 93 00 06 	sts	0x0600, r24
	PORTB.DIR = 0b00001100;
 22e:	8c e0       	ldi	r24, 0x0C	; 12
 230:	80 93 20 06 	sts	0x0620, r24
	PORTC.DIR = 0b11100001;	
 234:	81 ee       	ldi	r24, 0xE1	; 225
 236:	80 93 40 06 	sts	0x0640, r24
	PORTD.DIR = 0b00000000;
 23a:	10 92 60 06 	sts	0x0660, r1
	PORTE.DIR = 0b00001011;
 23e:	8b e0       	ldi	r24, 0x0B	; 11
 240:	80 93 80 06 	sts	0x0680, r24
	PORTR.DIR = 0b00000000;
 244:	10 92 e0 07 	sts	0x07E0, r1
	
	
	i = x = y = z = 0;
	j = ok = ct = 0;
 248:	10 e0       	ldi	r17, 0x00	; 0
 24a:	00 e0       	ldi	r16, 0x00	; 0
	PORTD.DIR = 0b00000000;
	PORTE.DIR = 0b00001011;
	PORTR.DIR = 0b00000000;
	
	
	i = x = y = z = 0;
 24c:	40 e0       	ldi	r20, 0x00	; 0
 24e:	50 e0       	ldi	r21, 0x00	; 0
 250:	ba 01       	movw	r22, r20
 252:	80 e0       	ldi	r24, 0x00	; 0
 254:	90 e0       	ldi	r25, 0x00	; 0
 256:	dc 01       	movw	r26, r24
			i = 0;
			ct++;
			if(ct>2) ct = 0;
		}
		if (i> 10000) PORTC.OUTSET = 0b00100000;
			else PORTC.OUTCLR = 0b00100000;
 258:	0f 2e       	mov	r0, r31
 25a:	f0 e4       	ldi	r31, 0x40	; 64
 25c:	ef 2e       	mov	r14, r31
 25e:	f6 e0       	ldi	r31, 0x06	; 6
 260:	ff 2e       	mov	r15, r31
 262:	f0 2d       	mov	r31, r0
 264:	68 94       	set
 266:	22 24       	eor	r2, r2
 268:	25 f8       	bld	r2, 5
		
		// USB-ESD-SCHUTZ testen
		x++;
		if (x>200) x = 0;
		if (x< 25) {
			PORTD.DIR = 0b11011001;
 26a:	0f 2e       	mov	r0, r31
 26c:	f0 e6       	ldi	r31, 0x60	; 96
 26e:	cf 2e       	mov	r12, r31
 270:	f6 e0       	ldi	r31, 0x06	; 6
 272:	df 2e       	mov	r13, r31
 274:	f0 2d       	mov	r31, r0
			PORTD.OUT = 0b10011001;
 276:	0f 2e       	mov	r0, r31
 278:	f9 e9       	ldi	r31, 0x99	; 153
 27a:	3f 2e       	mov	r3, r31
 27c:	f0 2d       	mov	r31, r0
	j = ok = ct = 0;
	
	//PORTA.OUT = 4;
	//while(1);
	while(1){
		PORTA.OUT = (PORTA.OUT & 0b11111011) | ((~PORTA.IN & 0b00000001) << 2);
 27e:	20 91 04 06 	lds	r18, 0x0604
 282:	2b 7f       	andi	r18, 0xFB	; 251
 284:	30 91 08 06 	lds	r19, 0x0608
 288:	30 fd       	sbrc	r19, 0
 28a:	02 c0       	rjmp	.+4      	; 0x290 <main+0x76>
 28c:	34 e0       	ldi	r19, 0x04	; 4
 28e:	01 c0       	rjmp	.+2      	; 0x292 <main+0x78>
 290:	30 e0       	ldi	r19, 0x00	; 0
 292:	23 2b       	or	r18, r19
 294:	20 93 04 06 	sts	0x0604, r18
		PORTB.OUT = (PORTB.OUT & 0b11111011) | ((~PORTB.IN & 0b00000001) << 2);
 298:	20 91 24 06 	lds	r18, 0x0624
 29c:	2b 7f       	andi	r18, 0xFB	; 251
 29e:	30 91 28 06 	lds	r19, 0x0628
 2a2:	30 fd       	sbrc	r19, 0
 2a4:	02 c0       	rjmp	.+4      	; 0x2aa <main+0x90>
 2a6:	34 e0       	ldi	r19, 0x04	; 4
 2a8:	01 c0       	rjmp	.+2      	; 0x2ac <main+0x92>
 2aa:	30 e0       	ldi	r19, 0x00	; 0
 2ac:	23 2b       	or	r18, r19
 2ae:	20 93 24 06 	sts	0x0624, r18

		// USB-ESD-Schutz Z-Diode testen
		i++;
 2b2:	4f 5f       	subi	r20, 0xFF	; 255
 2b4:	5f 4f       	sbci	r21, 0xFF	; 255
 2b6:	6f 4f       	sbci	r22, 0xFF	; 255
 2b8:	7f 4f       	sbci	r23, 0xFF	; 255
		if (i> 20000) {
 2ba:	41 32       	cpi	r20, 0x21	; 33
 2bc:	2e e4       	ldi	r18, 0x4E	; 78
 2be:	52 07       	cpc	r21, r18
 2c0:	61 05       	cpc	r22, r1
 2c2:	71 05       	cpc	r23, r1
 2c4:	28 f0       	brcs	.+10     	; 0x2d0 <main+0xb6>
			i = 0;
			ct++;
 2c6:	1f 5f       	subi	r17, 0xFF	; 255
			if(ct>2) ct = 0;
 2c8:	13 30       	cpi	r17, 0x03	; 3
 2ca:	08 f0       	brcs	.+2      	; 0x2ce <main+0xb4>
 2cc:	3b c4       	rjmp	.+2166   	; 0xb44 <main+0x92a>
 2ce:	3b c4       	rjmp	.+2166   	; 0xb46 <main+0x92c>
		}
		if (i> 10000) PORTC.OUTSET = 0b00100000;
 2d0:	41 31       	cpi	r20, 0x11	; 17
 2d2:	37 e2       	ldi	r19, 0x27	; 39
 2d4:	53 07       	cpc	r21, r19
 2d6:	61 05       	cpc	r22, r1
 2d8:	71 05       	cpc	r23, r1
 2da:	18 f0       	brcs	.+6      	; 0x2e2 <main+0xc8>
 2dc:	f7 01       	movw	r30, r14
 2de:	25 82       	std	Z+5, r2	; 0x05
 2e0:	02 c0       	rjmp	.+4      	; 0x2e6 <main+0xcc>
			else PORTC.OUTCLR = 0b00100000;
 2e2:	f7 01       	movw	r30, r14
 2e4:	26 82       	std	Z+6, r2	; 0x06
		
		// USB-ESD-SCHUTZ testen
		x++;
 2e6:	01 96       	adiw	r24, 0x01	; 1
 2e8:	a1 1d       	adc	r26, r1
 2ea:	b1 1d       	adc	r27, r1
		if (x>200) x = 0;
 2ec:	89 3c       	cpi	r24, 0xC9	; 201
 2ee:	91 05       	cpc	r25, r1
 2f0:	a1 05       	cpc	r26, r1
 2f2:	b1 05       	cpc	r27, r1
 2f4:	30 f4       	brcc	.+12     	; 0x302 <main+0xe8>
		if (x< 25) {
 2f6:	89 31       	cpi	r24, 0x19	; 25
 2f8:	91 05       	cpc	r25, r1
 2fa:	a1 05       	cpc	r26, r1
 2fc:	b1 05       	cpc	r27, r1
 2fe:	60 f4       	brcc	.+24     	; 0x318 <main+0xfe>
 300:	03 c0       	rjmp	.+6      	; 0x308 <main+0xee>
		if (i> 10000) PORTC.OUTSET = 0b00100000;
			else PORTC.OUTCLR = 0b00100000;
		
		// USB-ESD-SCHUTZ testen
		x++;
		if (x>200) x = 0;
 302:	80 e0       	ldi	r24, 0x00	; 0
 304:	90 e0       	ldi	r25, 0x00	; 0
 306:	dc 01       	movw	r26, r24
		if (x< 25) {
			PORTD.DIR = 0b11011001;
 308:	0f 2e       	mov	r0, r31
 30a:	f9 ed       	ldi	r31, 0xD9	; 217
 30c:	4f 2e       	mov	r4, r31
 30e:	f0 2d       	mov	r31, r0
 310:	f6 01       	movw	r30, r12
 312:	40 82       	st	Z, r4
			PORTD.OUT = 0b10011001;
 314:	34 82       	std	Z+4, r3	; 0x04
 316:	b3 cf       	rjmp	.-154    	; 0x27e <main+0x64>
		}
		else if(x < 50){
 318:	82 33       	cpi	r24, 0x32	; 50
 31a:	91 05       	cpc	r25, r1
 31c:	a1 05       	cpc	r26, r1
 31e:	b1 05       	cpc	r27, r1
 320:	40 f4       	brcc	.+16     	; 0x332 <main+0x118>
			PORTD.DIR = 0b01011001;
 322:	0f 2e       	mov	r0, r31
 324:	f9 e5       	ldi	r31, 0x59	; 89
 326:	4f 2e       	mov	r4, r31
 328:	f0 2d       	mov	r31, r0
 32a:	f6 01       	movw	r30, r12
 32c:	40 82       	st	Z, r4
			PORTD.OUT = 0b01011001;
 32e:	44 82       	std	Z+4, r4	; 0x04
 330:	a6 cf       	rjmp	.-180    	; 0x27e <main+0x64>
		}
		else if(x < 75){
 332:	8b 34       	cpi	r24, 0x4B	; 75
 334:	91 05       	cpc	r25, r1
 336:	a1 05       	cpc	r26, r1
 338:	b1 05       	cpc	r27, r1
 33a:	60 f4       	brcc	.+24     	; 0x354 <main+0x13a>
			PORTD.DIR = 0b11011001;
 33c:	0f 2e       	mov	r0, r31
 33e:	f9 ed       	ldi	r31, 0xD9	; 217
 340:	4f 2e       	mov	r4, r31
 342:	f0 2d       	mov	r31, r0
 344:	f6 01       	movw	r30, r12
 346:	40 82       	st	Z, r4
			PORTD.OUT = 0b01011001;
 348:	0f 2e       	mov	r0, r31
 34a:	f9 e5       	ldi	r31, 0x59	; 89
 34c:	5f 2e       	mov	r5, r31
 34e:	f0 2d       	mov	r31, r0
 350:	54 82       	std	Z+4, r5	; 0x04
 352:	95 cf       	rjmp	.-214    	; 0x27e <main+0x64>
		}
		else if(x < 100){
 354:	84 36       	cpi	r24, 0x64	; 100
 356:	91 05       	cpc	r25, r1
 358:	a1 05       	cpc	r26, r1
 35a:	b1 05       	cpc	r27, r1
 35c:	20 f4       	brcc	.+8      	; 0x366 <main+0x14c>
			PORTD.DIR = 0b10011001;
 35e:	f6 01       	movw	r30, r12
 360:	30 82       	st	Z, r3
			PORTD.OUT = 0b10011001;
 362:	34 82       	std	Z+4, r3	; 0x04
 364:	8c cf       	rjmp	.-232    	; 0x27e <main+0x64>
			
		}
		else if (x< 125) {
 366:	8d 37       	cpi	r24, 0x7D	; 125
 368:	91 05       	cpc	r25, r1
 36a:	a1 05       	cpc	r26, r1
 36c:	b1 05       	cpc	r27, r1
 36e:	40 f4       	brcc	.+16     	; 0x380 <main+0x166>
			PORTD.DIR = 0b11011001;
 370:	0f 2e       	mov	r0, r31
 372:	f9 ed       	ldi	r31, 0xD9	; 217
 374:	4f 2e       	mov	r4, r31
 376:	f0 2d       	mov	r31, r0
 378:	f6 01       	movw	r30, r12
 37a:	40 82       	st	Z, r4
			PORTD.OUT = 0b10011001;
 37c:	34 82       	std	Z+4, r3	; 0x04
 37e:	7f cf       	rjmp	.-258    	; 0x27e <main+0x64>
		}
		else if(x < 150){
 380:	86 39       	cpi	r24, 0x96	; 150
 382:	91 05       	cpc	r25, r1
 384:	a1 05       	cpc	r26, r1
 386:	b1 05       	cpc	r27, r1
 388:	40 f4       	brcc	.+16     	; 0x39a <main+0x180>
			PORTD.DIR = 0b10011001;
 38a:	f6 01       	movw	r30, r12
 38c:	30 82       	st	Z, r3
			PORTD.OUT = 0b01011001;
 38e:	0f 2e       	mov	r0, r31
 390:	f9 e5       	ldi	r31, 0x59	; 89
 392:	4f 2e       	mov	r4, r31
 394:	f0 2d       	mov	r31, r0
 396:	44 82       	std	Z+4, r4	; 0x04
 398:	72 cf       	rjmp	.-284    	; 0x27e <main+0x64>
		}
		else if(x < 175){
 39a:	8f 3a       	cpi	r24, 0xAF	; 175
 39c:	91 05       	cpc	r25, r1
 39e:	a1 05       	cpc	r26, r1
 3a0:	b1 05       	cpc	r27, r1
 3a2:	60 f4       	brcc	.+24     	; 0x3bc <main+0x1a2>
			PORTD.DIR = 0b11011001;
 3a4:	0f 2e       	mov	r0, r31
 3a6:	f9 ed       	ldi	r31, 0xD9	; 217
 3a8:	4f 2e       	mov	r4, r31
 3aa:	f0 2d       	mov	r31, r0
 3ac:	f6 01       	movw	r30, r12
 3ae:	40 82       	st	Z, r4
			PORTD.OUT = 0b01011001;
 3b0:	0f 2e       	mov	r0, r31
 3b2:	f9 e5       	ldi	r31, 0x59	; 89
 3b4:	5f 2e       	mov	r5, r31
 3b6:	f0 2d       	mov	r31, r0
 3b8:	54 82       	std	Z+4, r5	; 0x04
 3ba:	61 cf       	rjmp	.-318    	; 0x27e <main+0x64>
		}
		else if(x < 199){
 3bc:	87 3c       	cpi	r24, 0xC7	; 199
 3be:	91 05       	cpc	r25, r1
 3c0:	a1 05       	cpc	r26, r1
 3c2:	b1 05       	cpc	r27, r1
 3c4:	40 f4       	brcc	.+16     	; 0x3d6 <main+0x1bc>
			PORTD.DIR = 0b01011001;
 3c6:	0f 2e       	mov	r0, r31
 3c8:	f9 e5       	ldi	r31, 0x59	; 89
 3ca:	4f 2e       	mov	r4, r31
 3cc:	f0 2d       	mov	r31, r0
 3ce:	f6 01       	movw	r30, r12
 3d0:	40 82       	st	Z, r4
			PORTD.OUT = 0b10011001;	
 3d2:	34 82       	std	Z+4, r3	; 0x04
 3d4:	54 cf       	rjmp	.-344    	; 0x27e <main+0x64>
		}
		//andere Pins testen
		else{
			j++;
 3d6:	0f 5f       	subi	r16, 0xFF	; 255
			if (j>10){
 3d8:	0b 30       	cpi	r16, 0x0B	; 11
 3da:	08 f4       	brcc	.+2      	; 0x3de <main+0x1c4>
 3dc:	75 c3       	rjmp	.+1770   	; 0xac8 <main+0x8ae>
				j = 0;
				ok = 0;
				PORTE.OUTCLR = 1 << 0;
 3de:	55 24       	eor	r5, r5
 3e0:	53 94       	inc	r5
 3e2:	50 92 86 06 	sts	0x0686, r5
				PORTE.OUTSET = 1 << 1;
 3e6:	68 94       	set
 3e8:	66 24       	eor	r6, r6
 3ea:	61 f8       	bld	r6, 1
 3ec:	60 92 85 06 	sts	0x0685, r6
				PORTE.OUTCLR = 1 << 3;
 3f0:	68 94       	set
 3f2:	77 24       	eor	r7, r7
 3f4:	73 f8       	bld	r7, 3
 3f6:	70 92 86 06 	sts	0x0686, r7
				PORTD.DIR = 0b11011000;
 3fa:	0f 2e       	mov	r0, r31
 3fc:	f8 ed       	ldi	r31, 0xD8	; 216
 3fe:	4f 2e       	mov	r4, r31
 400:	f0 2d       	mov	r31, r0
 402:	f6 01       	movw	r30, r12
 404:	40 82       	st	Z, r4
				PORTA.OUTSET = 1 << 3;
 406:	70 92 05 06 	sts	0x0605, r7
				PORTA.OUTCLR = 1 << 4;
 40a:	68 94       	set
 40c:	55 24       	eor	r5, r5
 40e:	54 f8       	bld	r5, 4
 410:	50 92 06 06 	sts	0x0606, r5
				PORTA.OUTSET = 1 << 5;
 414:	20 92 05 06 	sts	0x0605, r2
				PORTB.OUTCLR = 1 << 3;
 418:	70 92 26 06 	sts	0x0626, r7
				PORTC.OUTSET = 1 << 0;
 41c:	44 24       	eor	r4, r4
 41e:	43 94       	inc	r4
 420:	f7 01       	movw	r30, r14
 422:	45 82       	std	Z+5, r4	; 0x05
				PORTC.OUTCLR = 1 << 7;
 424:	68 94       	set
 426:	55 24       	eor	r5, r5
 428:	57 f8       	bld	r5, 7
 42a:	56 82       	std	Z+6, r5	; 0x06
				PORTC.OUTCLR = 1 << 5;
 42c:	26 82       	std	Z+6, r2	; 0x06
				PORTC.OUTSET = 1 << 6;
 42e:	68 94       	set
 430:	66 24       	eor	r6, r6
 432:	66 f8       	bld	r6, 6
 434:	65 82       	std	Z+5, r6	; 0x05
				PORTD.OUTCLR = 1 << 3;
 436:	f6 01       	movw	r30, r12
 438:	76 82       	std	Z+6, r7	; 0x06
				PORTD.OUTSET = 1 << 4;
 43a:	68 94       	set
 43c:	44 24       	eor	r4, r4
 43e:	44 f8       	bld	r4, 4
 440:	45 82       	std	Z+5, r4	; 0x05
				PORTD.OUTCLR = 1 << 6;
 442:	66 82       	std	Z+6, r6	; 0x06
				PORTD.OUTSET = 1 << 7;
 444:	55 82       	std	Z+5, r5	; 0x05
				z = ((uint32_t)PORTA.IN & 0b11111010) >> 1;
 446:	00 91 08 06 	lds	r16, 0x0608
 44a:	0a 7f       	andi	r16, 0xFA	; 250
 44c:	40 2e       	mov	r4, r16
 44e:	51 2c       	mov	r5, r1
 450:	61 2c       	mov	r6, r1
 452:	71 2c       	mov	r7, r1
 454:	53 01       	movw	r10, r6
 456:	42 01       	movw	r8, r4
 458:	b6 94       	lsr	r11
 45a:	a7 94       	ror	r10
 45c:	97 94       	ror	r9
 45e:	87 94       	ror	r8
 460:	89 82       	std	Y+1, r8	; 0x01
 462:	9a 82       	std	Y+2, r9	; 0x02
 464:	ab 82       	std	Y+3, r10	; 0x03
 466:	bc 82       	std	Y+4, r11	; 0x04
				z+= ((uint32_t)PORTB.IN & 0b00001010) << 6;
 468:	30 91 28 06 	lds	r19, 0x0628
				z+= (uint32_t)PORTC.IN << 10;
 46c:	f7 01       	movw	r30, r14
 46e:	00 85       	ldd	r16, Z+8	; 0x08
				z+= (uint32_t)PORTD.IN << 18;
 470:	f6 01       	movw	r30, r12
 472:	70 84       	ldd	r7, Z+8	; 0x08
				z+= ((uint32_t)PORTE.IN & 0b00001111) << 26;
 474:	20 91 88 06 	lds	r18, 0x0688
				z+= ((uint32_t)PORTR.IN & 0b00000011) << 30;	
 478:	e0 91 e8 07 	lds	r30, 0x07E8
				PORTD.OUTCLR = 1 << 6;
				PORTD.OUTSET = 1 << 7;
				z = ((uint32_t)PORTA.IN & 0b11111010) >> 1;
				z+= ((uint32_t)PORTB.IN & 0b00001010) << 6;
				z+= (uint32_t)PORTC.IN << 10;
				z+= (uint32_t)PORTD.IN << 18;
 47c:	47 2c       	mov	r4, r7
 47e:	51 2c       	mov	r5, r1
 480:	61 2c       	mov	r6, r1
 482:	71 2c       	mov	r7, r1
 484:	53 01       	movw	r10, r6
 486:	42 01       	movw	r8, r4
 488:	07 2e       	mov	r0, r23
 48a:	72 e1       	ldi	r23, 0x12	; 18
 48c:	88 0c       	add	r8, r8
 48e:	99 1c       	adc	r9, r9
 490:	aa 1c       	adc	r10, r10
 492:	bb 1c       	adc	r11, r11
 494:	7a 95       	dec	r23
 496:	d1 f7       	brne	.-12     	; 0x48c <main+0x272>
 498:	70 2d       	mov	r23, r0
 49a:	8d 82       	std	Y+5, r8	; 0x05
 49c:	9e 82       	std	Y+6, r9	; 0x06
 49e:	af 82       	std	Y+7, r10	; 0x07
 4a0:	b8 86       	std	Y+8, r11	; 0x08
				PORTD.OUTSET = 1 << 4;
				PORTD.OUTCLR = 1 << 6;
				PORTD.OUTSET = 1 << 7;
				z = ((uint32_t)PORTA.IN & 0b11111010) >> 1;
				z+= ((uint32_t)PORTB.IN & 0b00001010) << 6;
				z+= (uint32_t)PORTC.IN << 10;
 4a2:	40 2e       	mov	r4, r16
 4a4:	51 2c       	mov	r5, r1
 4a6:	61 2c       	mov	r6, r1
 4a8:	71 2c       	mov	r7, r1
 4aa:	53 01       	movw	r10, r6
 4ac:	42 01       	movw	r8, r4
 4ae:	07 2e       	mov	r0, r23
 4b0:	7a e0       	ldi	r23, 0x0A	; 10
 4b2:	88 0c       	add	r8, r8
 4b4:	99 1c       	adc	r9, r9
 4b6:	aa 1c       	adc	r10, r10
 4b8:	bb 1c       	adc	r11, r11
 4ba:	7a 95       	dec	r23
 4bc:	d1 f7       	brne	.-12     	; 0x4b2 <main+0x298>
 4be:	70 2d       	mov	r23, r0
				PORTD.OUTCLR = 1 << 3;
				PORTD.OUTSET = 1 << 4;
				PORTD.OUTCLR = 1 << 6;
				PORTD.OUTSET = 1 << 7;
				z = ((uint32_t)PORTA.IN & 0b11111010) >> 1;
				z+= ((uint32_t)PORTB.IN & 0b00001010) << 6;
 4c0:	4d 80       	ldd	r4, Y+5	; 0x05
 4c2:	5e 80       	ldd	r5, Y+6	; 0x06
 4c4:	6f 80       	ldd	r6, Y+7	; 0x07
 4c6:	78 84       	ldd	r7, Y+8	; 0x08
 4c8:	84 0c       	add	r8, r4
 4ca:	95 1c       	adc	r9, r5
 4cc:	a6 1c       	adc	r10, r6
 4ce:	b7 1c       	adc	r11, r7
 4d0:	89 86       	std	Y+9, r8	; 0x09
 4d2:	9a 86       	std	Y+10, r9	; 0x0a
 4d4:	ab 86       	std	Y+11, r10	; 0x0b
 4d6:	bc 86       	std	Y+12, r11	; 0x0c
				z+= (uint32_t)PORTC.IN << 10;
				z+= (uint32_t)PORTD.IN << 18;
				z+= ((uint32_t)PORTE.IN & 0b00001111) << 26;
				z+= ((uint32_t)PORTR.IN & 0b00000011) << 30;	
 4d8:	4e 2e       	mov	r4, r30
 4da:	51 2c       	mov	r5, r1
 4dc:	61 2c       	mov	r6, r1
 4de:	71 2c       	mov	r7, r1
 4e0:	53 01       	movw	r10, r6
 4e2:	42 01       	movw	r8, r4
 4e4:	07 2e       	mov	r0, r23
 4e6:	7e e1       	ldi	r23, 0x1E	; 30
 4e8:	88 0c       	add	r8, r8
 4ea:	99 1c       	adc	r9, r9
 4ec:	aa 1c       	adc	r10, r10
 4ee:	bb 1c       	adc	r11, r11
 4f0:	7a 95       	dec	r23
 4f2:	d1 f7       	brne	.-12     	; 0x4e8 <main+0x2ce>
 4f4:	70 2d       	mov	r23, r0
				PORTD.OUTSET = 1 << 4;
				PORTD.OUTCLR = 1 << 6;
				PORTD.OUTSET = 1 << 7;
				z = ((uint32_t)PORTA.IN & 0b11111010) >> 1;
				z+= ((uint32_t)PORTB.IN & 0b00001010) << 6;
				z+= (uint32_t)PORTC.IN << 10;
 4f6:	49 84       	ldd	r4, Y+9	; 0x09
 4f8:	5a 84       	ldd	r5, Y+10	; 0x0a
 4fa:	6b 84       	ldd	r6, Y+11	; 0x0b
 4fc:	7c 84       	ldd	r7, Y+12	; 0x0c
 4fe:	48 0c       	add	r4, r8
 500:	59 1c       	adc	r5, r9
 502:	6a 1c       	adc	r6, r10
 504:	7b 1c       	adc	r7, r11
				z+= (uint32_t)PORTD.IN << 18;
 506:	89 80       	ldd	r8, Y+1	; 0x01
 508:	9a 80       	ldd	r9, Y+2	; 0x02
 50a:	ab 80       	ldd	r10, Y+3	; 0x03
 50c:	bc 80       	ldd	r11, Y+4	; 0x04
 50e:	84 0c       	add	r8, r4
 510:	95 1c       	adc	r9, r5
 512:	a6 1c       	adc	r10, r6
 514:	b7 1c       	adc	r11, r7
 516:	89 82       	std	Y+1, r8	; 0x01
 518:	9a 82       	std	Y+2, r9	; 0x02
 51a:	ab 82       	std	Y+3, r10	; 0x03
 51c:	bc 82       	std	Y+4, r11	; 0x04
				PORTD.OUTCLR = 1 << 3;
				PORTD.OUTSET = 1 << 4;
				PORTD.OUTCLR = 1 << 6;
				PORTD.OUTSET = 1 << 7;
				z = ((uint32_t)PORTA.IN & 0b11111010) >> 1;
				z+= ((uint32_t)PORTB.IN & 0b00001010) << 6;
 51e:	3a 70       	andi	r19, 0x0A	; 10
 520:	83 2e       	mov	r8, r19
 522:	91 2c       	mov	r9, r1
 524:	a1 2c       	mov	r10, r1
 526:	b1 2c       	mov	r11, r1
 528:	88 0c       	add	r8, r8
 52a:	99 1c       	adc	r9, r9
 52c:	aa 1c       	adc	r10, r10
 52e:	bb 1c       	adc	r11, r11
 530:	88 0c       	add	r8, r8
 532:	99 1c       	adc	r9, r9
 534:	aa 1c       	adc	r10, r10
 536:	bb 1c       	adc	r11, r11
 538:	88 0c       	add	r8, r8
 53a:	99 1c       	adc	r9, r9
 53c:	aa 1c       	adc	r10, r10
 53e:	bb 1c       	adc	r11, r11
 540:	88 0c       	add	r8, r8
 542:	99 1c       	adc	r9, r9
 544:	aa 1c       	adc	r10, r10
 546:	bb 1c       	adc	r11, r11
 548:	24 01       	movw	r4, r8
 54a:	35 01       	movw	r6, r10
 54c:	44 0c       	add	r4, r4
 54e:	55 1c       	adc	r5, r5
 550:	66 1c       	adc	r6, r6
 552:	77 1c       	adc	r7, r7
 554:	44 0c       	add	r4, r4
 556:	55 1c       	adc	r5, r5
 558:	66 1c       	adc	r6, r6
 55a:	77 1c       	adc	r7, r7
				z+= (uint32_t)PORTC.IN << 10;
				z+= (uint32_t)PORTD.IN << 18;
				z+= ((uint32_t)PORTE.IN & 0b00001111) << 26;
 55c:	89 80       	ldd	r8, Y+1	; 0x01
 55e:	9a 80       	ldd	r9, Y+2	; 0x02
 560:	ab 80       	ldd	r10, Y+3	; 0x03
 562:	bc 80       	ldd	r11, Y+4	; 0x04
 564:	84 0c       	add	r8, r4
 566:	95 1c       	adc	r9, r5
 568:	a6 1c       	adc	r10, r6
 56a:	b7 1c       	adc	r11, r7
 56c:	89 82       	std	Y+1, r8	; 0x01
 56e:	9a 82       	std	Y+2, r9	; 0x02
 570:	ab 82       	std	Y+3, r10	; 0x03
 572:	bc 82       	std	Y+4, r11	; 0x04
 574:	2f 70       	andi	r18, 0x0F	; 15
 576:	82 2e       	mov	r8, r18
 578:	91 2c       	mov	r9, r1
 57a:	a1 2c       	mov	r10, r1
 57c:	b1 2c       	mov	r11, r1
 57e:	24 01       	movw	r4, r8
 580:	35 01       	movw	r6, r10
 582:	03 2e       	mov	r0, r19
 584:	3a e1       	ldi	r19, 0x1A	; 26
 586:	44 0c       	add	r4, r4
 588:	55 1c       	adc	r5, r5
 58a:	66 1c       	adc	r6, r6
 58c:	77 1c       	adc	r7, r7
 58e:	3a 95       	dec	r19
 590:	d1 f7       	brne	.-12     	; 0x586 <main+0x36c>
 592:	30 2d       	mov	r19, r0
				z+= ((uint32_t)PORTR.IN & 0b00000011) << 30;	
 594:	89 80       	ldd	r8, Y+1	; 0x01
 596:	9a 80       	ldd	r9, Y+2	; 0x02
 598:	ab 80       	ldd	r10, Y+3	; 0x03
 59a:	bc 80       	ldd	r11, Y+4	; 0x04
 59c:	48 0c       	add	r4, r8
 59e:	59 1c       	adc	r5, r9
 5a0:	6a 1c       	adc	r6, r10
 5a2:	7b 1c       	adc	r7, r11
				if (0b10001010010101010101010001010101 == (uint32_t) z) ok += 1;
 5a4:	21 e0       	ldi	r18, 0x01	; 1
 5a6:	35 e5       	ldi	r19, 0x55	; 85
 5a8:	43 16       	cp	r4, r19
 5aa:	34 e5       	ldi	r19, 0x54	; 84
 5ac:	53 06       	cpc	r5, r19
 5ae:	35 e5       	ldi	r19, 0x55	; 85
 5b0:	63 06       	cpc	r6, r19
 5b2:	3a e8       	ldi	r19, 0x8A	; 138
 5b4:	73 06       	cpc	r7, r19
 5b6:	09 f0       	breq	.+2      	; 0x5ba <main+0x3a0>
 5b8:	20 e0       	ldi	r18, 0x00	; 0

				PORTD.OUTSET = 1 << 3;
 5ba:	68 94       	set
 5bc:	44 24       	eor	r4, r4
 5be:	43 f8       	bld	r4, 3
 5c0:	f6 01       	movw	r30, r12
 5c2:	45 82       	std	Z+5, r4	; 0x05
				PORTE.OUTSET = 1 << 0;
 5c4:	55 24       	eor	r5, r5
 5c6:	53 94       	inc	r5
 5c8:	50 92 85 06 	sts	0x0685, r5
				z = ((uint32_t)PORTA.IN & 0b11111010) >> 1;
 5cc:	00 91 08 06 	lds	r16, 0x0608
 5d0:	0a 7f       	andi	r16, 0xFA	; 250
 5d2:	40 2e       	mov	r4, r16
 5d4:	51 2c       	mov	r5, r1
 5d6:	61 2c       	mov	r6, r1
 5d8:	71 2c       	mov	r7, r1
 5da:	53 01       	movw	r10, r6
 5dc:	42 01       	movw	r8, r4
 5de:	b6 94       	lsr	r11
 5e0:	a7 94       	ror	r10
 5e2:	97 94       	ror	r9
 5e4:	87 94       	ror	r8
 5e6:	89 82       	std	Y+1, r8	; 0x01
 5e8:	9a 82       	std	Y+2, r9	; 0x02
 5ea:	ab 82       	std	Y+3, r10	; 0x03
 5ec:	bc 82       	std	Y+4, r11	; 0x04
				z+= ((uint32_t)PORTB.IN & 0b00001010) << 6;
 5ee:	00 91 28 06 	lds	r16, 0x0628
				z+= (uint32_t)PORTC.IN << 10;
 5f2:	f7 01       	movw	r30, r14
 5f4:	50 84       	ldd	r5, Z+8	; 0x08
				z+= (uint32_t)PORTD.IN << 18;
 5f6:	f6 01       	movw	r30, r12
 5f8:	b0 84       	ldd	r11, Z+8	; 0x08
				z+= ((uint32_t)PORTE.IN & 0b00001111) << 26;
 5fa:	30 91 88 06 	lds	r19, 0x0688
				z+= ((uint32_t)PORTR.IN & 0b00000011) << 30;
 5fe:	e0 91 e8 07 	lds	r30, 0x07E8
				PORTD.OUTSET = 1 << 3;
				PORTE.OUTSET = 1 << 0;
				z = ((uint32_t)PORTA.IN & 0b11111010) >> 1;
				z+= ((uint32_t)PORTB.IN & 0b00001010) << 6;
				z+= (uint32_t)PORTC.IN << 10;
				z+= (uint32_t)PORTD.IN << 18;
 602:	6b 2c       	mov	r6, r11
 604:	71 2c       	mov	r7, r1
 606:	81 2c       	mov	r8, r1
 608:	91 2c       	mov	r9, r1
 60a:	05 2e       	mov	r0, r21
 60c:	52 e1       	ldi	r21, 0x12	; 18
 60e:	66 0c       	add	r6, r6
 610:	77 1c       	adc	r7, r7
 612:	88 1c       	adc	r8, r8
 614:	99 1c       	adc	r9, r9
 616:	5a 95       	dec	r21
 618:	d1 f7       	brne	.-12     	; 0x60e <main+0x3f4>
 61a:	50 2d       	mov	r21, r0
 61c:	6d 82       	std	Y+5, r6	; 0x05
 61e:	7e 82       	std	Y+6, r7	; 0x06
 620:	8f 82       	std	Y+7, r8	; 0x07
 622:	98 86       	std	Y+8, r9	; 0x08

				PORTD.OUTSET = 1 << 3;
				PORTE.OUTSET = 1 << 0;
				z = ((uint32_t)PORTA.IN & 0b11111010) >> 1;
				z+= ((uint32_t)PORTB.IN & 0b00001010) << 6;
				z+= (uint32_t)PORTC.IN << 10;
 624:	85 2c       	mov	r8, r5
 626:	91 2c       	mov	r9, r1
 628:	a1 2c       	mov	r10, r1
 62a:	b1 2c       	mov	r11, r1
 62c:	24 01       	movw	r4, r8
 62e:	35 01       	movw	r6, r10
 630:	03 2e       	mov	r0, r19
 632:	3a e0       	ldi	r19, 0x0A	; 10
 634:	44 0c       	add	r4, r4
 636:	55 1c       	adc	r5, r5
 638:	66 1c       	adc	r6, r6
 63a:	77 1c       	adc	r7, r7
 63c:	3a 95       	dec	r19
 63e:	d1 f7       	brne	.-12     	; 0x634 <main+0x41a>
 640:	30 2d       	mov	r19, r0
				if (0b10001010010101010101010001010101 == (uint32_t) z) ok += 1;

				PORTD.OUTSET = 1 << 3;
				PORTE.OUTSET = 1 << 0;
				z = ((uint32_t)PORTA.IN & 0b11111010) >> 1;
				z+= ((uint32_t)PORTB.IN & 0b00001010) << 6;
 642:	8d 80       	ldd	r8, Y+5	; 0x05
 644:	9e 80       	ldd	r9, Y+6	; 0x06
 646:	af 80       	ldd	r10, Y+7	; 0x07
 648:	b8 84       	ldd	r11, Y+8	; 0x08
 64a:	48 0c       	add	r4, r8
 64c:	59 1c       	adc	r5, r9
 64e:	6a 1c       	adc	r6, r10
 650:	7b 1c       	adc	r7, r11
 652:	49 86       	std	Y+9, r4	; 0x09
 654:	5a 86       	std	Y+10, r5	; 0x0a
 656:	6b 86       	std	Y+11, r6	; 0x0b
 658:	7c 86       	std	Y+12, r7	; 0x0c
				z+= (uint32_t)PORTC.IN << 10;
				z+= (uint32_t)PORTD.IN << 18;
				z+= ((uint32_t)PORTE.IN & 0b00001111) << 26;
				z+= ((uint32_t)PORTR.IN & 0b00000011) << 30;
 65a:	4e 2e       	mov	r4, r30
 65c:	51 2c       	mov	r5, r1
 65e:	61 2c       	mov	r6, r1
 660:	71 2c       	mov	r7, r1
 662:	53 01       	movw	r10, r6
 664:	42 01       	movw	r8, r4
 666:	07 2e       	mov	r0, r23
 668:	7e e1       	ldi	r23, 0x1E	; 30
 66a:	88 0c       	add	r8, r8
 66c:	99 1c       	adc	r9, r9
 66e:	aa 1c       	adc	r10, r10
 670:	bb 1c       	adc	r11, r11
 672:	7a 95       	dec	r23
 674:	d1 f7       	brne	.-12     	; 0x66a <main+0x450>
 676:	70 2d       	mov	r23, r0

				PORTD.OUTSET = 1 << 3;
				PORTE.OUTSET = 1 << 0;
				z = ((uint32_t)PORTA.IN & 0b11111010) >> 1;
				z+= ((uint32_t)PORTB.IN & 0b00001010) << 6;
				z+= (uint32_t)PORTC.IN << 10;
 678:	49 84       	ldd	r4, Y+9	; 0x09
 67a:	5a 84       	ldd	r5, Y+10	; 0x0a
 67c:	6b 84       	ldd	r6, Y+11	; 0x0b
 67e:	7c 84       	ldd	r7, Y+12	; 0x0c
 680:	48 0c       	add	r4, r8
 682:	59 1c       	adc	r5, r9
 684:	6a 1c       	adc	r6, r10
 686:	7b 1c       	adc	r7, r11
				z+= (uint32_t)PORTD.IN << 18;
 688:	89 80       	ldd	r8, Y+1	; 0x01
 68a:	9a 80       	ldd	r9, Y+2	; 0x02
 68c:	ab 80       	ldd	r10, Y+3	; 0x03
 68e:	bc 80       	ldd	r11, Y+4	; 0x04
 690:	84 0c       	add	r8, r4
 692:	95 1c       	adc	r9, r5
 694:	a6 1c       	adc	r10, r6
 696:	b7 1c       	adc	r11, r7
 698:	89 82       	std	Y+1, r8	; 0x01
 69a:	9a 82       	std	Y+2, r9	; 0x02
 69c:	ab 82       	std	Y+3, r10	; 0x03
 69e:	bc 82       	std	Y+4, r11	; 0x04
				if (0b10001010010101010101010001010101 == (uint32_t) z) ok += 1;

				PORTD.OUTSET = 1 << 3;
				PORTE.OUTSET = 1 << 0;
				z = ((uint32_t)PORTA.IN & 0b11111010) >> 1;
				z+= ((uint32_t)PORTB.IN & 0b00001010) << 6;
 6a0:	0a 70       	andi	r16, 0x0A	; 10
 6a2:	80 2e       	mov	r8, r16
 6a4:	91 2c       	mov	r9, r1
 6a6:	a1 2c       	mov	r10, r1
 6a8:	b1 2c       	mov	r11, r1
 6aa:	88 0c       	add	r8, r8
 6ac:	99 1c       	adc	r9, r9
 6ae:	aa 1c       	adc	r10, r10
 6b0:	bb 1c       	adc	r11, r11
 6b2:	88 0c       	add	r8, r8
 6b4:	99 1c       	adc	r9, r9
 6b6:	aa 1c       	adc	r10, r10
 6b8:	bb 1c       	adc	r11, r11
 6ba:	88 0c       	add	r8, r8
 6bc:	99 1c       	adc	r9, r9
 6be:	aa 1c       	adc	r10, r10
 6c0:	bb 1c       	adc	r11, r11
 6c2:	88 0c       	add	r8, r8
 6c4:	99 1c       	adc	r9, r9
 6c6:	aa 1c       	adc	r10, r10
 6c8:	bb 1c       	adc	r11, r11
 6ca:	24 01       	movw	r4, r8
 6cc:	35 01       	movw	r6, r10
 6ce:	44 0c       	add	r4, r4
 6d0:	55 1c       	adc	r5, r5
 6d2:	66 1c       	adc	r6, r6
 6d4:	77 1c       	adc	r7, r7
 6d6:	44 0c       	add	r4, r4
 6d8:	55 1c       	adc	r5, r5
 6da:	66 1c       	adc	r6, r6
 6dc:	77 1c       	adc	r7, r7
				z+= (uint32_t)PORTC.IN << 10;
				z+= (uint32_t)PORTD.IN << 18;
				z+= ((uint32_t)PORTE.IN & 0b00001111) << 26;
 6de:	89 80       	ldd	r8, Y+1	; 0x01
 6e0:	9a 80       	ldd	r9, Y+2	; 0x02
 6e2:	ab 80       	ldd	r10, Y+3	; 0x03
 6e4:	bc 80       	ldd	r11, Y+4	; 0x04
 6e6:	84 0c       	add	r8, r4
 6e8:	95 1c       	adc	r9, r5
 6ea:	a6 1c       	adc	r10, r6
 6ec:	b7 1c       	adc	r11, r7
 6ee:	89 82       	std	Y+1, r8	; 0x01
 6f0:	9a 82       	std	Y+2, r9	; 0x02
 6f2:	ab 82       	std	Y+3, r10	; 0x03
 6f4:	bc 82       	std	Y+4, r11	; 0x04
 6f6:	3f 70       	andi	r19, 0x0F	; 15
 6f8:	83 2e       	mov	r8, r19
 6fa:	91 2c       	mov	r9, r1
 6fc:	a1 2c       	mov	r10, r1
 6fe:	b1 2c       	mov	r11, r1
 700:	24 01       	movw	r4, r8
 702:	35 01       	movw	r6, r10
 704:	03 2e       	mov	r0, r19
 706:	3a e1       	ldi	r19, 0x1A	; 26
 708:	44 0c       	add	r4, r4
 70a:	55 1c       	adc	r5, r5
 70c:	66 1c       	adc	r6, r6
 70e:	77 1c       	adc	r7, r7
 710:	3a 95       	dec	r19
 712:	d1 f7       	brne	.-12     	; 0x708 <main+0x4ee>
 714:	30 2d       	mov	r19, r0
				z+= ((uint32_t)PORTR.IN & 0b00000011) << 30;
 716:	89 80       	ldd	r8, Y+1	; 0x01
 718:	9a 80       	ldd	r9, Y+2	; 0x02
 71a:	ab 80       	ldd	r10, Y+3	; 0x03
 71c:	bc 80       	ldd	r11, Y+4	; 0x04
 71e:	48 0c       	add	r4, r8
 720:	59 1c       	adc	r5, r9
 722:	6a 1c       	adc	r6, r10
 724:	7b 1c       	adc	r7, r11
				if (0b10011110111101010101010001010101 == (uint32_t) z) ok += 2;
 726:	35 e5       	ldi	r19, 0x55	; 85
 728:	43 16       	cp	r4, r19
 72a:	34 e5       	ldi	r19, 0x54	; 84
 72c:	53 06       	cpc	r5, r19
 72e:	35 ef       	ldi	r19, 0xF5	; 245
 730:	63 06       	cpc	r6, r19
 732:	3e e9       	ldi	r19, 0x9E	; 158
 734:	73 06       	cpc	r7, r19
 736:	09 f4       	brne	.+2      	; 0x73a <main+0x520>
 738:	2e 5f       	subi	r18, 0xFE	; 254

				PORTE.OUTSET = 1 << 0;
 73a:	e1 e0       	ldi	r30, 0x01	; 1
 73c:	e0 93 85 06 	sts	0x0685, r30
				PORTE.OUTCLR = 1 << 1;
 740:	f2 e0       	ldi	r31, 0x02	; 2
 742:	f0 93 86 06 	sts	0x0686, r31
				PORTE.OUTSET = 1 << 3;
 746:	68 94       	set
 748:	44 24       	eor	r4, r4
 74a:	43 f8       	bld	r4, 3
 74c:	40 92 85 06 	sts	0x0685, r4
				PORTD.DIR = 0b11011000;
 750:	0f 2e       	mov	r0, r31
 752:	f8 ed       	ldi	r31, 0xD8	; 216
 754:	4f 2e       	mov	r4, r31
 756:	f0 2d       	mov	r31, r0
 758:	f6 01       	movw	r30, r12
 75a:	40 82       	st	Z, r4
				PORTA.OUTCLR = 1 << 3;
 75c:	68 94       	set
 75e:	55 24       	eor	r5, r5
 760:	53 f8       	bld	r5, 3
 762:	50 92 06 06 	sts	0x0606, r5
				PORTA.OUTSET = 1 << 4;
 766:	68 94       	set
 768:	66 24       	eor	r6, r6
 76a:	64 f8       	bld	r6, 4
 76c:	60 92 05 06 	sts	0x0605, r6
				PORTA.OUTCLR = 1 << 5;
 770:	20 92 06 06 	sts	0x0606, r2
				PORTB.OUTSET = 1 << 3;
 774:	50 92 25 06 	sts	0x0625, r5
				PORTC.OUTCLR = 1 << 0;
 778:	44 24       	eor	r4, r4
 77a:	43 94       	inc	r4
 77c:	f7 01       	movw	r30, r14
 77e:	46 82       	std	Z+6, r4	; 0x06
				PORTC.OUTSET = 1 << 7;
 780:	68 94       	set
 782:	55 24       	eor	r5, r5
 784:	57 f8       	bld	r5, 7
 786:	55 82       	std	Z+5, r5	; 0x05
				PORTC.OUTSET = 1 << 5;
 788:	25 82       	std	Z+5, r2	; 0x05
				PORTC.OUTCLR = 1 << 6;
 78a:	68 94       	set
 78c:	66 24       	eor	r6, r6
 78e:	66 f8       	bld	r6, 6
 790:	66 82       	std	Z+6, r6	; 0x06
				PORTD.OUTSET = 1 << 3;
 792:	68 94       	set
 794:	44 24       	eor	r4, r4
 796:	43 f8       	bld	r4, 3
 798:	f6 01       	movw	r30, r12
 79a:	45 82       	std	Z+5, r4	; 0x05
				PORTD.OUTCLR = 1 << 4;
 79c:	68 94       	set
 79e:	55 24       	eor	r5, r5
 7a0:	54 f8       	bld	r5, 4
 7a2:	56 82       	std	Z+6, r5	; 0x06
				PORTD.OUTSET = 1 << 6;
 7a4:	65 82       	std	Z+5, r6	; 0x05
				PORTD.OUTCLR = 1 << 7;
 7a6:	68 94       	set
 7a8:	66 24       	eor	r6, r6
 7aa:	67 f8       	bld	r6, 7
 7ac:	66 82       	std	Z+6, r6	; 0x06
				z = ((uint32_t)PORTA.IN & 0b11111010) >> 1;
 7ae:	00 91 08 06 	lds	r16, 0x0608
 7b2:	0a 7f       	andi	r16, 0xFA	; 250
 7b4:	40 2e       	mov	r4, r16
 7b6:	51 2c       	mov	r5, r1
 7b8:	61 2c       	mov	r6, r1
 7ba:	71 2c       	mov	r7, r1
 7bc:	53 01       	movw	r10, r6
 7be:	42 01       	movw	r8, r4
 7c0:	b6 94       	lsr	r11
 7c2:	a7 94       	ror	r10
 7c4:	97 94       	ror	r9
 7c6:	87 94       	ror	r8
 7c8:	89 82       	std	Y+1, r8	; 0x01
 7ca:	9a 82       	std	Y+2, r9	; 0x02
 7cc:	ab 82       	std	Y+3, r10	; 0x03
 7ce:	bc 82       	std	Y+4, r11	; 0x04
				z+= ((uint32_t)PORTB.IN & 0b00001010) << 6;
 7d0:	00 91 28 06 	lds	r16, 0x0628
				z+= (uint32_t)PORTC.IN << 10;
 7d4:	f7 01       	movw	r30, r14
 7d6:	50 84       	ldd	r5, Z+8	; 0x08
				z+= (uint32_t)PORTD.IN << 18;
 7d8:	f6 01       	movw	r30, r12
 7da:	b0 84       	ldd	r11, Z+8	; 0x08
				z+= ((uint32_t)PORTE.IN & 0b00001111) << 26;
 7dc:	30 91 88 06 	lds	r19, 0x0688
				z+= ((uint32_t)PORTR.IN & 0b00000011) << 30;
 7e0:	e0 91 e8 07 	lds	r30, 0x07E8
				PORTD.OUTSET = 1 << 6;
				PORTD.OUTCLR = 1 << 7;
				z = ((uint32_t)PORTA.IN & 0b11111010) >> 1;
				z+= ((uint32_t)PORTB.IN & 0b00001010) << 6;
				z+= (uint32_t)PORTC.IN << 10;
				z+= (uint32_t)PORTD.IN << 18;
 7e4:	6b 2c       	mov	r6, r11
 7e6:	71 2c       	mov	r7, r1
 7e8:	81 2c       	mov	r8, r1
 7ea:	91 2c       	mov	r9, r1
 7ec:	05 2e       	mov	r0, r21
 7ee:	52 e1       	ldi	r21, 0x12	; 18
 7f0:	66 0c       	add	r6, r6
 7f2:	77 1c       	adc	r7, r7
 7f4:	88 1c       	adc	r8, r8
 7f6:	99 1c       	adc	r9, r9
 7f8:	5a 95       	dec	r21
 7fa:	d1 f7       	brne	.-12     	; 0x7f0 <main+0x5d6>
 7fc:	50 2d       	mov	r21, r0
 7fe:	6d 82       	std	Y+5, r6	; 0x05
 800:	7e 82       	std	Y+6, r7	; 0x06
 802:	8f 82       	std	Y+7, r8	; 0x07
 804:	98 86       	std	Y+8, r9	; 0x08
				PORTD.OUTCLR = 1 << 4;
				PORTD.OUTSET = 1 << 6;
				PORTD.OUTCLR = 1 << 7;
				z = ((uint32_t)PORTA.IN & 0b11111010) >> 1;
				z+= ((uint32_t)PORTB.IN & 0b00001010) << 6;
				z+= (uint32_t)PORTC.IN << 10;
 806:	85 2c       	mov	r8, r5
 808:	91 2c       	mov	r9, r1
 80a:	a1 2c       	mov	r10, r1
 80c:	b1 2c       	mov	r11, r1
 80e:	24 01       	movw	r4, r8
 810:	35 01       	movw	r6, r10
 812:	03 2e       	mov	r0, r19
 814:	3a e0       	ldi	r19, 0x0A	; 10
 816:	44 0c       	add	r4, r4
 818:	55 1c       	adc	r5, r5
 81a:	66 1c       	adc	r6, r6
 81c:	77 1c       	adc	r7, r7
 81e:	3a 95       	dec	r19
 820:	d1 f7       	brne	.-12     	; 0x816 <main+0x5fc>
 822:	30 2d       	mov	r19, r0
				PORTD.OUTSET = 1 << 3;
				PORTD.OUTCLR = 1 << 4;
				PORTD.OUTSET = 1 << 6;
				PORTD.OUTCLR = 1 << 7;
				z = ((uint32_t)PORTA.IN & 0b11111010) >> 1;
				z+= ((uint32_t)PORTB.IN & 0b00001010) << 6;
 824:	8d 80       	ldd	r8, Y+5	; 0x05
 826:	9e 80       	ldd	r9, Y+6	; 0x06
 828:	af 80       	ldd	r10, Y+7	; 0x07
 82a:	b8 84       	ldd	r11, Y+8	; 0x08
 82c:	48 0c       	add	r4, r8
 82e:	59 1c       	adc	r5, r9
 830:	6a 1c       	adc	r6, r10
 832:	7b 1c       	adc	r7, r11
 834:	49 86       	std	Y+9, r4	; 0x09
 836:	5a 86       	std	Y+10, r5	; 0x0a
 838:	6b 86       	std	Y+11, r6	; 0x0b
 83a:	7c 86       	std	Y+12, r7	; 0x0c
				z+= (uint32_t)PORTC.IN << 10;
				z+= (uint32_t)PORTD.IN << 18;
				z+= ((uint32_t)PORTE.IN & 0b00001111) << 26;
				z+= ((uint32_t)PORTR.IN & 0b00000011) << 30;
 83c:	4e 2e       	mov	r4, r30
 83e:	51 2c       	mov	r5, r1
 840:	61 2c       	mov	r6, r1
 842:	71 2c       	mov	r7, r1
 844:	53 01       	movw	r10, r6
 846:	42 01       	movw	r8, r4
 848:	07 2e       	mov	r0, r23
 84a:	7e e1       	ldi	r23, 0x1E	; 30
 84c:	88 0c       	add	r8, r8
 84e:	99 1c       	adc	r9, r9
 850:	aa 1c       	adc	r10, r10
 852:	bb 1c       	adc	r11, r11
 854:	7a 95       	dec	r23
 856:	d1 f7       	brne	.-12     	; 0x84c <main+0x632>
 858:	70 2d       	mov	r23, r0
				PORTD.OUTCLR = 1 << 4;
				PORTD.OUTSET = 1 << 6;
				PORTD.OUTCLR = 1 << 7;
				z = ((uint32_t)PORTA.IN & 0b11111010) >> 1;
				z+= ((uint32_t)PORTB.IN & 0b00001010) << 6;
				z+= (uint32_t)PORTC.IN << 10;
 85a:	49 84       	ldd	r4, Y+9	; 0x09
 85c:	5a 84       	ldd	r5, Y+10	; 0x0a
 85e:	6b 84       	ldd	r6, Y+11	; 0x0b
 860:	7c 84       	ldd	r7, Y+12	; 0x0c
 862:	48 0c       	add	r4, r8
 864:	59 1c       	adc	r5, r9
 866:	6a 1c       	adc	r6, r10
 868:	7b 1c       	adc	r7, r11
				z+= (uint32_t)PORTD.IN << 18;
 86a:	89 80       	ldd	r8, Y+1	; 0x01
 86c:	9a 80       	ldd	r9, Y+2	; 0x02
 86e:	ab 80       	ldd	r10, Y+3	; 0x03
 870:	bc 80       	ldd	r11, Y+4	; 0x04
 872:	84 0c       	add	r8, r4
 874:	95 1c       	adc	r9, r5
 876:	a6 1c       	adc	r10, r6
 878:	b7 1c       	adc	r11, r7
 87a:	89 82       	std	Y+1, r8	; 0x01
 87c:	9a 82       	std	Y+2, r9	; 0x02
 87e:	ab 82       	std	Y+3, r10	; 0x03
 880:	bc 82       	std	Y+4, r11	; 0x04
				PORTD.OUTSET = 1 << 3;
				PORTD.OUTCLR = 1 << 4;
				PORTD.OUTSET = 1 << 6;
				PORTD.OUTCLR = 1 << 7;
				z = ((uint32_t)PORTA.IN & 0b11111010) >> 1;
				z+= ((uint32_t)PORTB.IN & 0b00001010) << 6;
 882:	0a 70       	andi	r16, 0x0A	; 10
 884:	80 2e       	mov	r8, r16
 886:	91 2c       	mov	r9, r1
 888:	a1 2c       	mov	r10, r1
 88a:	b1 2c       	mov	r11, r1
 88c:	88 0c       	add	r8, r8
 88e:	99 1c       	adc	r9, r9
 890:	aa 1c       	adc	r10, r10
 892:	bb 1c       	adc	r11, r11
 894:	88 0c       	add	r8, r8
 896:	99 1c       	adc	r9, r9
 898:	aa 1c       	adc	r10, r10
 89a:	bb 1c       	adc	r11, r11
 89c:	88 0c       	add	r8, r8
 89e:	99 1c       	adc	r9, r9
 8a0:	aa 1c       	adc	r10, r10
 8a2:	bb 1c       	adc	r11, r11
 8a4:	88 0c       	add	r8, r8
 8a6:	99 1c       	adc	r9, r9
 8a8:	aa 1c       	adc	r10, r10
 8aa:	bb 1c       	adc	r11, r11
 8ac:	24 01       	movw	r4, r8
 8ae:	35 01       	movw	r6, r10
 8b0:	44 0c       	add	r4, r4
 8b2:	55 1c       	adc	r5, r5
 8b4:	66 1c       	adc	r6, r6
 8b6:	77 1c       	adc	r7, r7
 8b8:	44 0c       	add	r4, r4
 8ba:	55 1c       	adc	r5, r5
 8bc:	66 1c       	adc	r6, r6
 8be:	77 1c       	adc	r7, r7
				z+= (uint32_t)PORTC.IN << 10;
				z+= (uint32_t)PORTD.IN << 18;
				z+= ((uint32_t)PORTE.IN & 0b00001111) << 26;
 8c0:	89 80       	ldd	r8, Y+1	; 0x01
 8c2:	9a 80       	ldd	r9, Y+2	; 0x02
 8c4:	ab 80       	ldd	r10, Y+3	; 0x03
 8c6:	bc 80       	ldd	r11, Y+4	; 0x04
 8c8:	84 0c       	add	r8, r4
 8ca:	95 1c       	adc	r9, r5
 8cc:	a6 1c       	adc	r10, r6
 8ce:	b7 1c       	adc	r11, r7
 8d0:	89 82       	std	Y+1, r8	; 0x01
 8d2:	9a 82       	std	Y+2, r9	; 0x02
 8d4:	ab 82       	std	Y+3, r10	; 0x03
 8d6:	bc 82       	std	Y+4, r11	; 0x04
 8d8:	3f 70       	andi	r19, 0x0F	; 15
 8da:	83 2e       	mov	r8, r19
 8dc:	91 2c       	mov	r9, r1
 8de:	a1 2c       	mov	r10, r1
 8e0:	b1 2c       	mov	r11, r1
 8e2:	24 01       	movw	r4, r8
 8e4:	35 01       	movw	r6, r10
 8e6:	03 2e       	mov	r0, r19
 8e8:	3a e1       	ldi	r19, 0x1A	; 26
 8ea:	44 0c       	add	r4, r4
 8ec:	55 1c       	adc	r5, r5
 8ee:	66 1c       	adc	r6, r6
 8f0:	77 1c       	adc	r7, r7
 8f2:	3a 95       	dec	r19
 8f4:	d1 f7       	brne	.-12     	; 0x8ea <main+0x6d0>
 8f6:	30 2d       	mov	r19, r0
				z+= ((uint32_t)PORTR.IN & 0b00000011) << 30;
 8f8:	89 80       	ldd	r8, Y+1	; 0x01
 8fa:	9a 80       	ldd	r9, Y+2	; 0x02
 8fc:	ab 80       	ldd	r10, Y+3	; 0x03
 8fe:	bc 80       	ldd	r11, Y+4	; 0x04
 900:	48 0c       	add	r4, r8
 902:	59 1c       	adc	r5, r9
 904:	6a 1c       	adc	r6, r10
 906:	7b 1c       	adc	r7, r11
				if (0b01110101101010101010101010101000 == (uint32_t) z) ok += 4;
 908:	38 ea       	ldi	r19, 0xA8	; 168
 90a:	43 16       	cp	r4, r19
 90c:	3a ea       	ldi	r19, 0xAA	; 170
 90e:	53 06       	cpc	r5, r19
 910:	63 06       	cpc	r6, r19
 912:	35 e7       	ldi	r19, 0x75	; 117
 914:	73 06       	cpc	r7, r19
 916:	09 f4       	brne	.+2      	; 0x91a <main+0x700>
 918:	2c 5f       	subi	r18, 0xFC	; 252

				PORTD.OUTCLR = 1 << 3;
 91a:	68 94       	set
 91c:	44 24       	eor	r4, r4
 91e:	43 f8       	bld	r4, 3
 920:	f6 01       	movw	r30, r12
 922:	46 82       	std	Z+6, r4	; 0x06
				PORTE.OUTCLR = 1 << 0;
 924:	55 24       	eor	r5, r5
 926:	53 94       	inc	r5
 928:	50 92 86 06 	sts	0x0686, r5
				z = ((uint32_t)PORTA.IN & 0b11111010) >> 1;
 92c:	00 91 08 06 	lds	r16, 0x0608
 930:	0a 7f       	andi	r16, 0xFA	; 250
 932:	40 2e       	mov	r4, r16
 934:	51 2c       	mov	r5, r1
 936:	61 2c       	mov	r6, r1
 938:	71 2c       	mov	r7, r1
 93a:	53 01       	movw	r10, r6
 93c:	42 01       	movw	r8, r4
 93e:	b6 94       	lsr	r11
 940:	a7 94       	ror	r10
 942:	97 94       	ror	r9
 944:	87 94       	ror	r8
 946:	89 82       	std	Y+1, r8	; 0x01
 948:	9a 82       	std	Y+2, r9	; 0x02
 94a:	ab 82       	std	Y+3, r10	; 0x03
 94c:	bc 82       	std	Y+4, r11	; 0x04
				z+= ((uint32_t)PORTB.IN & 0b00001010) << 6;
 94e:	00 91 28 06 	lds	r16, 0x0628
				z+= (uint32_t)PORTC.IN << 10;
 952:	f7 01       	movw	r30, r14
 954:	50 84       	ldd	r5, Z+8	; 0x08
				z+= (uint32_t)PORTD.IN << 18;
 956:	f6 01       	movw	r30, r12
 958:	b0 84       	ldd	r11, Z+8	; 0x08
				z+= ((uint32_t)PORTE.IN & 0b00001111) << 26;
 95a:	30 91 88 06 	lds	r19, 0x0688
				z+= ((uint32_t)PORTR.IN & 0b00000011) << 30;
 95e:	e0 91 e8 07 	lds	r30, 0x07E8
				PORTD.OUTCLR = 1 << 3;
				PORTE.OUTCLR = 1 << 0;
				z = ((uint32_t)PORTA.IN & 0b11111010) >> 1;
				z+= ((uint32_t)PORTB.IN & 0b00001010) << 6;
				z+= (uint32_t)PORTC.IN << 10;
				z+= (uint32_t)PORTD.IN << 18;
 962:	6b 2c       	mov	r6, r11
 964:	71 2c       	mov	r7, r1
 966:	81 2c       	mov	r8, r1
 968:	91 2c       	mov	r9, r1
 96a:	05 2e       	mov	r0, r21
 96c:	52 e1       	ldi	r21, 0x12	; 18
 96e:	66 0c       	add	r6, r6
 970:	77 1c       	adc	r7, r7
 972:	88 1c       	adc	r8, r8
 974:	99 1c       	adc	r9, r9
 976:	5a 95       	dec	r21
 978:	d1 f7       	brne	.-12     	; 0x96e <main+0x754>
 97a:	50 2d       	mov	r21, r0
 97c:	6d 82       	std	Y+5, r6	; 0x05
 97e:	7e 82       	std	Y+6, r7	; 0x06
 980:	8f 82       	std	Y+7, r8	; 0x07
 982:	98 86       	std	Y+8, r9	; 0x08

				PORTD.OUTCLR = 1 << 3;
				PORTE.OUTCLR = 1 << 0;
				z = ((uint32_t)PORTA.IN & 0b11111010) >> 1;
				z+= ((uint32_t)PORTB.IN & 0b00001010) << 6;
				z+= (uint32_t)PORTC.IN << 10;
 984:	85 2c       	mov	r8, r5
 986:	91 2c       	mov	r9, r1
 988:	a1 2c       	mov	r10, r1
 98a:	b1 2c       	mov	r11, r1
 98c:	24 01       	movw	r4, r8
 98e:	35 01       	movw	r6, r10
 990:	03 2e       	mov	r0, r19
 992:	3a e0       	ldi	r19, 0x0A	; 10
 994:	44 0c       	add	r4, r4
 996:	55 1c       	adc	r5, r5
 998:	66 1c       	adc	r6, r6
 99a:	77 1c       	adc	r7, r7
 99c:	3a 95       	dec	r19
 99e:	d1 f7       	brne	.-12     	; 0x994 <main+0x77a>
 9a0:	30 2d       	mov	r19, r0
				if (0b01110101101010101010101010101000 == (uint32_t) z) ok += 4;

				PORTD.OUTCLR = 1 << 3;
				PORTE.OUTCLR = 1 << 0;
				z = ((uint32_t)PORTA.IN & 0b11111010) >> 1;
				z+= ((uint32_t)PORTB.IN & 0b00001010) << 6;
 9a2:	8d 80       	ldd	r8, Y+5	; 0x05
 9a4:	9e 80       	ldd	r9, Y+6	; 0x06
 9a6:	af 80       	ldd	r10, Y+7	; 0x07
 9a8:	b8 84       	ldd	r11, Y+8	; 0x08
 9aa:	48 0c       	add	r4, r8
 9ac:	59 1c       	adc	r5, r9
 9ae:	6a 1c       	adc	r6, r10
 9b0:	7b 1c       	adc	r7, r11
 9b2:	49 86       	std	Y+9, r4	; 0x09
 9b4:	5a 86       	std	Y+10, r5	; 0x0a
 9b6:	6b 86       	std	Y+11, r6	; 0x0b
 9b8:	7c 86       	std	Y+12, r7	; 0x0c
				z+= (uint32_t)PORTC.IN << 10;
				z+= (uint32_t)PORTD.IN << 18;
				z+= ((uint32_t)PORTE.IN & 0b00001111) << 26;
				z+= ((uint32_t)PORTR.IN & 0b00000011) << 30;
 9ba:	4e 2e       	mov	r4, r30
 9bc:	51 2c       	mov	r5, r1
 9be:	61 2c       	mov	r6, r1
 9c0:	71 2c       	mov	r7, r1
 9c2:	53 01       	movw	r10, r6
 9c4:	42 01       	movw	r8, r4
 9c6:	07 2e       	mov	r0, r23
 9c8:	7e e1       	ldi	r23, 0x1E	; 30
 9ca:	88 0c       	add	r8, r8
 9cc:	99 1c       	adc	r9, r9
 9ce:	aa 1c       	adc	r10, r10
 9d0:	bb 1c       	adc	r11, r11
 9d2:	7a 95       	dec	r23
 9d4:	d1 f7       	brne	.-12     	; 0x9ca <main+0x7b0>
 9d6:	70 2d       	mov	r23, r0

				PORTD.OUTCLR = 1 << 3;
				PORTE.OUTCLR = 1 << 0;
				z = ((uint32_t)PORTA.IN & 0b11111010) >> 1;
				z+= ((uint32_t)PORTB.IN & 0b00001010) << 6;
				z+= (uint32_t)PORTC.IN << 10;
 9d8:	49 84       	ldd	r4, Y+9	; 0x09
 9da:	5a 84       	ldd	r5, Y+10	; 0x0a
 9dc:	6b 84       	ldd	r6, Y+11	; 0x0b
 9de:	7c 84       	ldd	r7, Y+12	; 0x0c
 9e0:	48 0c       	add	r4, r8
 9e2:	59 1c       	adc	r5, r9
 9e4:	6a 1c       	adc	r6, r10
 9e6:	7b 1c       	adc	r7, r11
				z+= (uint32_t)PORTD.IN << 18;
 9e8:	89 80       	ldd	r8, Y+1	; 0x01
 9ea:	9a 80       	ldd	r9, Y+2	; 0x02
 9ec:	ab 80       	ldd	r10, Y+3	; 0x03
 9ee:	bc 80       	ldd	r11, Y+4	; 0x04
 9f0:	84 0c       	add	r8, r4
 9f2:	95 1c       	adc	r9, r5
 9f4:	a6 1c       	adc	r10, r6
 9f6:	b7 1c       	adc	r11, r7
 9f8:	89 82       	std	Y+1, r8	; 0x01
 9fa:	9a 82       	std	Y+2, r9	; 0x02
 9fc:	ab 82       	std	Y+3, r10	; 0x03
 9fe:	bc 82       	std	Y+4, r11	; 0x04
				if (0b01110101101010101010101010101000 == (uint32_t) z) ok += 4;

				PORTD.OUTCLR = 1 << 3;
				PORTE.OUTCLR = 1 << 0;
				z = ((uint32_t)PORTA.IN & 0b11111010) >> 1;
				z+= ((uint32_t)PORTB.IN & 0b00001010) << 6;
 a00:	0a 70       	andi	r16, 0x0A	; 10
 a02:	80 2e       	mov	r8, r16
 a04:	91 2c       	mov	r9, r1
 a06:	a1 2c       	mov	r10, r1
 a08:	b1 2c       	mov	r11, r1
 a0a:	88 0c       	add	r8, r8
 a0c:	99 1c       	adc	r9, r9
 a0e:	aa 1c       	adc	r10, r10
 a10:	bb 1c       	adc	r11, r11
 a12:	88 0c       	add	r8, r8
 a14:	99 1c       	adc	r9, r9
 a16:	aa 1c       	adc	r10, r10
 a18:	bb 1c       	adc	r11, r11
 a1a:	88 0c       	add	r8, r8
 a1c:	99 1c       	adc	r9, r9
 a1e:	aa 1c       	adc	r10, r10
 a20:	bb 1c       	adc	r11, r11
 a22:	88 0c       	add	r8, r8
 a24:	99 1c       	adc	r9, r9
 a26:	aa 1c       	adc	r10, r10
 a28:	bb 1c       	adc	r11, r11
 a2a:	24 01       	movw	r4, r8
 a2c:	35 01       	movw	r6, r10
 a2e:	44 0c       	add	r4, r4
 a30:	55 1c       	adc	r5, r5
 a32:	66 1c       	adc	r6, r6
 a34:	77 1c       	adc	r7, r7
 a36:	44 0c       	add	r4, r4
 a38:	55 1c       	adc	r5, r5
 a3a:	66 1c       	adc	r6, r6
 a3c:	77 1c       	adc	r7, r7
				z+= (uint32_t)PORTC.IN << 10;
				z+= (uint32_t)PORTD.IN << 18;
				z+= ((uint32_t)PORTE.IN & 0b00001111) << 26;
 a3e:	89 80       	ldd	r8, Y+1	; 0x01
 a40:	9a 80       	ldd	r9, Y+2	; 0x02
 a42:	ab 80       	ldd	r10, Y+3	; 0x03
 a44:	bc 80       	ldd	r11, Y+4	; 0x04
 a46:	84 0c       	add	r8, r4
 a48:	95 1c       	adc	r9, r5
 a4a:	a6 1c       	adc	r10, r6
 a4c:	b7 1c       	adc	r11, r7
 a4e:	89 82       	std	Y+1, r8	; 0x01
 a50:	9a 82       	std	Y+2, r9	; 0x02
 a52:	ab 82       	std	Y+3, r10	; 0x03
 a54:	bc 82       	std	Y+4, r11	; 0x04
 a56:	3f 70       	andi	r19, 0x0F	; 15
 a58:	83 2e       	mov	r8, r19
 a5a:	91 2c       	mov	r9, r1
 a5c:	a1 2c       	mov	r10, r1
 a5e:	b1 2c       	mov	r11, r1
 a60:	24 01       	movw	r4, r8
 a62:	35 01       	movw	r6, r10
 a64:	03 2e       	mov	r0, r19
 a66:	3a e1       	ldi	r19, 0x1A	; 26
 a68:	44 0c       	add	r4, r4
 a6a:	55 1c       	adc	r5, r5
 a6c:	66 1c       	adc	r6, r6
 a6e:	77 1c       	adc	r7, r7
 a70:	3a 95       	dec	r19
 a72:	d1 f7       	brne	.-12     	; 0xa68 <main+0x84e>
 a74:	30 2d       	mov	r19, r0
				z+= ((uint32_t)PORTR.IN & 0b00000011) << 30;
 a76:	89 80       	ldd	r8, Y+1	; 0x01
 a78:	9a 80       	ldd	r9, Y+2	; 0x02
 a7a:	ab 80       	ldd	r10, Y+3	; 0x03
 a7c:	bc 80       	ldd	r11, Y+4	; 0x04
 a7e:	48 0c       	add	r4, r8
 a80:	59 1c       	adc	r5, r9
 a82:	6a 1c       	adc	r6, r10
 a84:	7b 1c       	adc	r7, r11
				if (0b01100001000010101010101010101000 == (uint32_t) z) ok += 8;
 a86:	38 ea       	ldi	r19, 0xA8	; 168
 a88:	43 16       	cp	r4, r19
 a8a:	3a ea       	ldi	r19, 0xAA	; 170
 a8c:	53 06       	cpc	r5, r19
 a8e:	3a e0       	ldi	r19, 0x0A	; 10
 a90:	63 06       	cpc	r6, r19
 a92:	31 e6       	ldi	r19, 0x61	; 97
 a94:	73 06       	cpc	r7, r19
 a96:	09 f4       	brne	.+2      	; 0xa9a <main+0x880>
 a98:	28 5f       	subi	r18, 0xF8	; 248
			
				if (15==ok) {
 a9a:	2f 30       	cpi	r18, 0x0F	; 15
 a9c:	59 f4       	brne	.+22     	; 0xab4 <main+0x89a>
					PORTC.OUTSET = 1 << 6;
 a9e:	68 94       	set
 aa0:	44 24       	eor	r4, r4
 aa2:	46 f8       	bld	r4, 6
 aa4:	f7 01       	movw	r30, r14
 aa6:	45 82       	std	Z+5, r4	; 0x05
					PORTC.OUTCLR = 1 << 7;
 aa8:	68 94       	set
 aaa:	55 24       	eor	r5, r5
 aac:	57 f8       	bld	r5, 7
 aae:	56 82       	std	Z+6, r5	; 0x06
		}
		//andere Pins testen
		else{
			j++;
			if (j>10){
				j = 0;
 ab0:	00 e0       	ldi	r16, 0x00	; 0
 ab2:	0a c0       	rjmp	.+20     	; 0xac8 <main+0x8ae>
				if (15==ok) {
					PORTC.OUTSET = 1 << 6;
					PORTC.OUTCLR = 1 << 7;
				}
				else {
					PORTC.OUTCLR = 1 << 6;
 ab4:	68 94       	set
 ab6:	44 24       	eor	r4, r4
 ab8:	46 f8       	bld	r4, 6
 aba:	f7 01       	movw	r30, r14
 abc:	46 82       	std	Z+6, r4	; 0x06
					PORTC.OUTSET = 1 << 7;
 abe:	68 94       	set
 ac0:	55 24       	eor	r5, r5
 ac2:	57 f8       	bld	r5, 7
 ac4:	55 82       	std	Z+5, r5	; 0x05
		}
		//andere Pins testen
		else{
			j++;
			if (j>10){
				j = 0;
 ac6:	00 e0       	ldi	r16, 0x00	; 0
					PORTC.OUTSET = 1 << 7;
				}
			}
			
			// Quarz testen
			if(ct < 1){
 ac8:	11 11       	cpse	r17, r1
 aca:	27 c0       	rjmp	.+78     	; 0xb1a <main+0x900>
				PORTE.DIR = 0b00000001; // damit Quarz nicht ber testpins belastet wird
 acc:	44 24       	eor	r4, r4
 ace:	43 94       	inc	r4
 ad0:	e0 e8       	ldi	r30, 0x80	; 128
 ad2:	f6 e0       	ldi	r31, 0x06	; 6
 ad4:	40 82       	st	Z, r4


				// Enable the external oscillator
				OSC.XOSCCTRL = OSC_FRQRANGE_2TO9_gc | OSC_XOSCSEL_XTAL_16KCLK_gc ;
 ad6:	0f 2e       	mov	r0, r31
 ad8:	fb e4       	ldi	r31, 0x4B	; 75
 ada:	5f 2e       	mov	r5, r31
 adc:	f0 2d       	mov	r31, r0
 ade:	50 92 52 00 	sts	0x0052, r5
				OSC.CTRL |= OSC_XOSCEN_bm ;
 ae2:	e0 e5       	ldi	r30, 0x50	; 80
 ae4:	f0 e0       	ldi	r31, 0x00	; 0
 ae6:	20 81       	ld	r18, Z
 ae8:	28 60       	ori	r18, 0x08	; 8
 aea:	20 83       	st	Z, r18
				while( (OSC.STATUS & OSC_XOSCRDY_bm) == 0 ){} // wait until stable
 aec:	20 91 51 00 	lds	r18, 0x0051
 af0:	23 ff       	sbrs	r18, 3
 af2:	fc cf       	rjmp	.-8      	; 0xaec <main+0x8d2>

				// Now configure the PLL to be eXternal OSCillator * 2
				OSC.PLLCTRL = OSC_PLLSRC_XOSC_gc | 3 ;
 af4:	f3 ec       	ldi	r31, 0xC3	; 195
 af6:	f0 93 55 00 	sts	0x0055, r31
				OSC.CTRL |= OSC_PLLEN_bm ; // enable the PLL...
 afa:	e0 e5       	ldi	r30, 0x50	; 80
 afc:	f0 e0       	ldi	r31, 0x00	; 0
 afe:	20 81       	ld	r18, Z
 b00:	20 61       	ori	r18, 0x10	; 16
 b02:	20 83       	st	Z, r18
				while( (OSC.STATUS & OSC_PLLRDY_bm) == 0 ){} // wait until stable
 b04:	20 91 51 00 	lds	r18, 0x0051
 b08:	24 ff       	sbrs	r18, 4
 b0a:	fc cf       	rjmp	.-8      	; 0xb04 <main+0x8ea>

				// And now switch to the PLL as the clocksource
				CCP = CCP_IOREG_gc; // protected write follows
 b0c:	f8 ed       	ldi	r31, 0xD8	; 216
 b0e:	f4 bf       	out	0x34, r31	; 52
				CLK.CTRL = CLK_SCLKSEL_PLL_gc;
 b10:	24 e0       	ldi	r18, 0x04	; 4
 b12:	e0 e4       	ldi	r30, 0x40	; 64
 b14:	f0 e0       	ldi	r31, 0x00	; 0
 b16:	20 83       	st	Z, r18
 b18:	b2 cb       	rjmp	.-2204   	; 0x27e <main+0x64>
				
			}
			else{
				// And now switch to the PLL as the clocksource
				CCP = CCP_IOREG_gc; // protected write follows
 b1a:	f8 ed       	ldi	r31, 0xD8	; 216
 b1c:	f4 bf       	out	0x34, r31	; 52
				CLK.CTRL = CLK_SCLKSEL_RC2M_gc;
 b1e:	e0 e4       	ldi	r30, 0x40	; 64
 b20:	f0 e0       	ldi	r31, 0x00	; 0
 b22:	10 82       	st	Z, r1


				PORTE.DIR = 0b00001011; // PR0 und PR1 wieder verfuegbar
 b24:	0f 2e       	mov	r0, r31
 b26:	fb e0       	ldi	r31, 0x0B	; 11
 b28:	4f 2e       	mov	r4, r31
 b2a:	f0 2d       	mov	r31, r0
 b2c:	e0 e8       	ldi	r30, 0x80	; 128
 b2e:	f6 e0       	ldi	r31, 0x06	; 6
 b30:	40 82       	st	Z, r4
				// Disable the external oscillator
				OSC.CTRL &= ~OSC_XOSCEN_bm;
 b32:	e0 e5       	ldi	r30, 0x50	; 80
 b34:	f0 e0       	ldi	r31, 0x00	; 0
 b36:	20 81       	ld	r18, Z
 b38:	27 7f       	andi	r18, 0xF7	; 247
 b3a:	20 83       	st	Z, r18
				OSC.CTRL &= ~OSC_PLLEN_bm ; // disable the PLL...
 b3c:	20 81       	ld	r18, Z
 b3e:	2f 7e       	andi	r18, 0xEF	; 239
 b40:	20 83       	st	Z, r18
 b42:	9d cb       	rjmp	.-2246   	; 0x27e <main+0x64>
		// USB-ESD-Schutz Z-Diode testen
		i++;
		if (i> 20000) {
			i = 0;
			ct++;
			if(ct>2) ct = 0;
 b44:	10 e0       	ldi	r17, 0x00	; 0
	
	//PORTA.OUT = 4;
	//while(1);
	while(1){
		PORTA.OUT = (PORTA.OUT & 0b11111011) | ((~PORTA.IN & 0b00000001) << 2);
		PORTB.OUT = (PORTB.OUT & 0b11111011) | ((~PORTB.IN & 0b00000001) << 2);
 b46:	40 e0       	ldi	r20, 0x00	; 0
 b48:	50 e0       	ldi	r21, 0x00	; 0
 b4a:	ba 01       	movw	r22, r20
 b4c:	ca cb       	rjmp	.-2156   	; 0x2e2 <main+0xc8>

00000b4e <_exit>:
 b4e:	f8 94       	cli

00000b50 <__stop_program>:
 b50:	ff cf       	rjmp	.-2      	; 0xb50 <__stop_program>
